target datalayout = "e-m:e-p270:32:32-p271:32:32-p272:64:64-i64:64-i128:128-f80:128-n8:16:32:64-S128"
target triple = "x86_64-pc-linux-gnu"

%struct.nameData = type { [64 x i8] }
%struct.HeapTupleData = type { i32, %struct.ItemPointerData, i32, ptr }
%struct.ItemPointerData = type { %struct.BlockIdData, i16 }
%struct.BlockIdData = type { i16, i16 }
%struct.HeapTupleHeaderData = type { %union.anon, %struct.ItemPointerData, i16, i16, i8, [0 x i8] }
%union.anon = type { %struct.HeapTupleFields }
%struct.HeapTupleFields = type { i32, i32, %union.anon.0 }
%union.anon.0 = type { i32 }
%struct.FormData_pg_collation = type { i32, %struct.nameData, i32, i32, i8, i8, i32 }

@.str.1 = private unnamed_addr constant [12 x i8] c"namespace.c\00", align 1
@activeSearchPath = internal global ptr null, align 8
@.str.36 = private unnamed_addr constant [37 x i8] c"cache lookup failed for collation %u\00", align 1
@__func__.CollationIsVisibleExt = private unnamed_addr constant [22 x i8] c"CollationIsVisibleExt\00", align 1

; Function Attrs: inlinehint nounwind uwtable
define internal ptr @GETSTRUCT(ptr noundef %0) #7 {
  %2 = alloca ptr, align 8
  store ptr %0, ptr %2, align 8
  %3 = load ptr, ptr %2, align 8
  %4 = getelementptr inbounds nuw %struct.HeapTupleData, ptr %3, i32 0, i32 3
  %5 = load ptr, ptr %4, align 8
  %6 = load ptr, ptr %2, align 8
  %7 = getelementptr inbounds nuw %struct.HeapTupleData, ptr %6, i32 0, i32 3
  %8 = load ptr, ptr %7, align 8
  %9 = getelementptr inbounds nuw %struct.HeapTupleHeaderData, ptr %8, i32 0, i32 4
  %10 = load i8, ptr %9, align 2
  %11 = zext i8 %10 to i32
  %12 = sext i32 %11 to i64
  %13 = getelementptr inbounds i8, ptr %5, i64 %12
  ret ptr %13
}

; Function Attrs: inlinehint nounwind uwtable
define internal i64 @ObjectIdGetDatum(i32 noundef %0) #7 {
  %2 = alloca i32, align 4
  store i32 %0, ptr %2, align 4
  %3 = load i32, ptr %2, align 4
  %4 = zext i32 %3 to i64
  ret i64 %4
}

; Function Attrs: nounwind uwtable
define internal zeroext i1 @CollationIsVisibleExt(i32 noundef %0, ptr noundef %1) #0 {
  %3 = alloca i1, align 1
  %4 = alloca i32, align 4
  %5 = alloca ptr, align 8
  %6 = alloca ptr, align 8
  %7 = alloca ptr, align 8
  %8 = alloca i32, align 4
  %9 = alloca i8, align 1
  %10 = alloca i32, align 4
  %11 = alloca ptr, align 8
  store i32 %0, ptr %4, align 4
  store ptr %1, ptr %5, align 8
  call void @llvm.lifetime.start.p0(i64 8, ptr %6) #14
  call void @llvm.lifetime.start.p0(i64 8, ptr %7) #14
  call void @llvm.lifetime.start.p0(i64 4, ptr %8) #14
  call void @llvm.lifetime.start.p0(i64 1, ptr %9) #14
  %12 = load i32, ptr %4, align 4
  %13 = call i64 @ObjectIdGetDatum(i32 noundef %12)
  %14 = call ptr @SearchSysCache1(i32 noundef 16, i64 noundef %13)
  store ptr %14, ptr %6, align 8
  %15 = load ptr, ptr %6, align 8
  %16 = icmp ne ptr %15, null
  br i1 %16, label %34, label %17

17:                                               ; preds = %2
  %18 = load ptr, ptr %5, align 8
  %19 = icmp ne ptr %18, null
  br i1 %19, label %20, label %22

20:                                               ; preds = %17
  %21 = load ptr, ptr %5, align 8
  store i8 1, ptr %21, align 1
  store i1 false, ptr %3, align 1
  store i32 1, ptr %10, align 4
  br label %61

22:                                               ; preds = %17
  br label %23

23:                                               ; preds = %22
  br i1 true, label %24, label %26

24:                                               ; preds = %23
  %25 = call zeroext i1 @errstart_cold(i32 noundef 21, ptr noundef null) #16
  br i1 %25, label %28, label %31

26:                                               ; preds = %23
  %27 = call zeroext i1 @errstart(i32 noundef 21, ptr noundef null)
  br i1 %27, label %28, label %31

28:                                               ; preds = %26, %24
  %29 = load i32, ptr %4, align 4
  %30 = call i32 (ptr, ...) @errmsg_internal(ptr noundef @.str.36, i32 noundef %29)
  call void @errfinish(ptr noundef @.str.1, i32 noundef 2434, ptr noundef @__func__.CollationIsVisibleExt)
  br label %31

31:                                               ; preds = %28, %26, %24
  unreachable

32:                                               ; No predecessors!
  br label %33

33:                                               ; preds = %32
  br label %34

34:                                               ; preds = %33, %2
  %35 = load ptr, ptr %6, align 8
  %36 = call ptr @GETSTRUCT(ptr noundef %35)
  store ptr %36, ptr %7, align 8
  call void @recomputeNamespacePath()
  %37 = load ptr, ptr %7, align 8
  %38 = getelementptr inbounds nuw %struct.FormData_pg_collation, ptr %37, i32 0, i32 2
  %39 = load i32, ptr %38, align 4
  store i32 %39, ptr %8, align 4
  %40 = load i32, ptr %8, align 4
  %41 = icmp ne i32 %40, 11
  br i1 %41, label %42, label %47

42:                                               ; preds = %34
  %43 = load ptr, ptr @activeSearchPath, align 8
  %44 = load i32, ptr %8, align 4
  %45 = call zeroext i1 @list_member_oid(ptr noundef %43, i32 noundef %44)
  br i1 %45, label %47, label %46

46:                                               ; preds = %42
  store i8 0, ptr %9, align 1
  br label %57

47:                                               ; preds = %42, %34
  call void @llvm.lifetime.start.p0(i64 8, ptr %11) #14
  %48 = load ptr, ptr %7, align 8
  %49 = getelementptr inbounds nuw %struct.FormData_pg_collation, ptr %48, i32 0, i32 1
  %50 = getelementptr inbounds nuw %struct.nameData, ptr %49, i32 0, i32 0
  %51 = getelementptr inbounds [64 x i8], ptr %50, i64 0, i64 0
  store ptr %51, ptr %11, align 8
  %52 = load ptr, ptr %11, align 8
  %53 = call i32 @CollationGetCollid(ptr noundef %52)
  %54 = load i32, ptr %4, align 4
  %55 = icmp eq i32 %53, %54
  %56 = zext i1 %55 to i8
  store i8 %56, ptr %9, align 1
  call void @llvm.lifetime.end.p0(i64 8, ptr %11) #14
  br label %57

57:                                               ; preds = %47, %46
  %58 = load ptr, ptr %6, align 8
  call void @ReleaseSysCache(ptr noundef %58)
  %59 = load i8, ptr %9, align 1, !range !4, !noundef !5
  %60 = trunc i8 %59 to i1
  store i1 %60, ptr %3, align 1
  store i32 1, ptr %10, align 4
  br label %61

61:                                               ; preds = %57, %20
  call void @llvm.lifetime.end.p0(i64 1, ptr %9) #14
  call void @llvm.lifetime.end.p0(i64 4, ptr %8) #14
  call void @llvm.lifetime.end.p0(i64 8, ptr %7) #14
  call void @llvm.lifetime.end.p0(i64 8, ptr %6) #14
  %62 = load i1, ptr %3, align 1
  ret i1 %62
}