; Function Attrs: nounwind uwtable
define internal fastcc zeroext i1 @CollationIsVisibleExt(i32 noundef %0, ptr noundef writeonly captures(address_is_null) %1) unnamed_addr #0 {
  %3 = zext i32 %0 to i64
  %4 = tail call ptr @SearchSysCache1(i32 noundef 16, i64 noundef %3) #19
  %.not = icmp eq ptr %4, null
  br i1 %.not, label %5, label %10

5:                                                ; preds = %2
  %.not18 = icmp eq ptr %1, null
  br i1 %.not18, label %7, label %6

6:                                                ; preds = %5
  store i8 1, ptr %1, align 1
  br label %26

7:                                                ; preds = %5
  %8 = tail call zeroext i1 @errstart_cold(i32 noundef 21, ptr noundef null) #21
  tail call void @llvm.assume(i1 %8)
  %9 = tail call i32 (ptr, ...) @errmsg_internal(ptr noundef nonnull @.str.36, i32 noundef %0) #19
  tail call void @errfinish(ptr noundef nonnull @.str.1, i32 noundef 2434, ptr noundef nonnull @__func__.CollationIsVisibleExt) #19
  unreachable

10:                                               ; preds = %2
  %11 = getelementptr i8, ptr %4, i64 16
  %.val = load ptr, ptr %11, align 8
  %12 = getelementptr inbounds nuw i8, ptr %.val, i64 22
  %13 = load i8, ptr %12, align 2
  %14 = zext i8 %13 to i64
  %15 = getelementptr inbounds nuw i8, ptr %.val, i64 %14
  tail call fastcc void @recomputeNamespacePath()
  %16 = getelementptr inbounds nuw i8, ptr %15, i64 68
  %17 = load i32, ptr %16, align 4
  %.not19 = icmp eq i32 %17, 11
  br i1 %.not19, label %21, label %18

18:                                               ; preds = %10
  %19 = load ptr, ptr @activeSearchPath, align 8
  %20 = tail call zeroext i1 @list_member_oid(ptr noundef %19, i32 noundef %17) #19
  br i1 %20, label %21, label %25

21:                                               ; preds = %18, %10
  %22 = getelementptr inbounds nuw i8, ptr %15, i64 4
  %23 = tail call i32 @CollationGetCollid(ptr noundef nonnull %22)
  %24 = icmp eq i32 %23, %0
  br label %25

25:                                               ; preds = %18, %21
  %.014 = phi i1 [ %24, %21 ], [ false, %18 ]
  tail call void @ReleaseSysCache(ptr noundef nonnull %4) #19
  br label %26

26:                                               ; preds = %25, %6
  %.0 = phi i1 [ %.014, %25 ], [ false, %6 ]
  ret i1 %.0
}